; Function Attrs: nounwind uwtable
define range(i64 0, 2) i64 @binary_coercible(ptr noundef readonly captures(none) %0) local_unnamed_addr #1 {
  %2 = getelementptr inbounds nuw i8, ptr %0, i64 32
  %3 = load i64, ptr %2, align 8
  %4 = trunc i64 %3 to i32
  %5 = getelementptr inbounds nuw i8, ptr %0, i64 48
  %6 = load i64, ptr %5, align 8
  %7 = trunc i64 %6 to i32
  %8 = tail call zeroext i1 @IsBinaryCoercible(i32 noundef %4, i32 noundef %7) #18
  %9 = zext i1 %8 to i64
  ret i64 %9
}